; Function Attrs: mustprogress nounwind uwtable
define internal void @_ZN12_GLOBAL__N_117AArch64PassConfig17addPostBBSectionsEv(ptr noundef nonnull align 8 dereferenceable(134) %0) unnamed_addr #0 align 2 {
  %2 = tail call noundef ptr @_ZN4llvm29createAArch64SLSHardeningPassEv() #21
  tail call void @_ZN4llvm16TargetPassConfig7addPassEPNS_4PassE(ptr noundef nonnull align 8 dereferenceable(134) %0, ptr noundef %2) #21
  %3 = tail call noundef ptr @_ZN4llvm28createAArch64PointerAuthPassEv() #21
  tail call void @_ZN4llvm16TargetPassConfig7addPassEPNS_4PassE(ptr noundef nonnull align 8 dereferenceable(134) %0, ptr noundef %3) #21
  %4 = load i8, ptr getelementptr inbounds (i8, ptr @_ZL19EnableBranchTargets, i64 128), align 8
  %5 = trunc i8 %4 to i1
  br i1 %5, label %6, label %8

6:                                                ; preds = %1
  %7 = tail call noundef ptr @_ZN4llvm30createAArch64BranchTargetsPassEv() #21
  tail call void @_ZN4llvm16TargetPassConfig7addPassEPNS_4PassE(ptr noundef nonnull align 8 dereferenceable(134) %0, ptr noundef %7) #21
  br label %8

8:                                                ; preds = %6, %1
  %9 = load i8, ptr getelementptr inbounds (i8, ptr @_ZL16BranchRelaxation, i64 128), align 8
  %10 = trunc i8 %9 to i1
  br i1 %10, label %11, label %14

11:                                               ; preds = %8
  %12 = load ptr, ptr @_ZN4llvm22BranchRelaxationPassIDE, align 8
  %13 = tail call noundef ptr @_ZN4llvm16TargetPassConfig7addPassEPKv(ptr noundef nonnull align 8 dereferenceable(134) %0, ptr noundef %12) #21
  br label %14

14:                                               ; preds = %11, %8
  %15 = getelementptr inbounds nuw i8, ptr %0, i64 112
  %16 = load ptr, ptr %15, align 8
  %17 = getelementptr inbounds nuw i8, ptr %16, i64 664
  %18 = load i32, ptr %17, align 8
  %.not = icmp eq i32 %18, 0
  br i1 %.not, label %24, label %19

19:                                               ; preds = %14
  %20 = load i8, ptr getelementptr inbounds (i8, ptr @_ZL24EnableCompressJumpTables, i64 128), align 8
  %21 = trunc i8 %20 to i1
  br i1 %21, label %22, label %24

22:                                               ; preds = %19
  %23 = tail call noundef ptr @_ZN4llvm35createAArch64CompressJumpTablesPassEv() #21
  tail call void @_ZN4llvm16TargetPassConfig7addPassEPNS_4PassE(ptr noundef nonnull align 8 dereferenceable(134) %0, ptr noundef %23) #21
  br label %24

24:                                               ; preds = %22, %19, %14
  ret void
}